; Function Attrs: nounwind uwtable
define hidden void @_glfwInputScroll(ptr noundef %0, double noundef %1, double noundef %2) local_unnamed_addr #0 {
  %4 = getelementptr inbounds nuw i8, ptr %0, i64 816
  %5 = load ptr, ptr %4, align 8, !tbaa !55
  %.not = icmp eq ptr %5, null
  br i1 %.not, label %7, label %6

6:                                                ; preds = %3
  tail call void %5(ptr noundef nonnull %0, double noundef %1, double noundef %2) #12
  br label %7

7:                                                ; preds = %6, %3
  ret void
}